; ModuleID = '39/68.c'
source_filename = "39/68.c"
target datalayout = "e-m:e-p270:32:32-p271:32:32-p272:64:64-i64:64-f80:128-n8:16:32:64-S128"
target triple = "x86_64-pc-linux-gnu"

%struct.student = type { [20 x i8], i32, i32, i8, i8, i32 }

@.str = private unnamed_addr constant [3 x i8] c"%d\00", align 1
@stu = common dso_local global [100 x %struct.student] zeroinitializer, align 16
@.str.1 = private unnamed_addr constant [18 x i8] c"%s %d %d %c %c %d\00", align 1
@.str.2 = private unnamed_addr constant [6 x i8] c"%d\0A%d\00", align 1

; Function Attrs: noinline nounwind uwtable
define dso_local void @main() #0 {
  %1 = alloca %struct.student*, align 8
  %2 = alloca i32, align 4
  %3 = alloca i32, align 4
  %4 = alloca i32, align 4
  %5 = alloca i32, align 4
  %6 = alloca i32, align 4
  %7 = alloca i32, align 4
  %8 = alloca [20 x i8], align 16
  store i32 0, i32* %3, align 4
  store i32 0, i32* %5, align 4
  %9 = call i32 (i8*, ...) @__isoc99_scanf(i8* getelementptr inbounds ([3 x i8], [3 x i8]* @.str, i64 0, i64 0), i32* %2)
  store %struct.student* getelementptr inbounds ([100 x %struct.student], [100 x %struct.student]* @stu, i64 0, i64 0), %struct.student** %1, align 8
  br label %10

10:                                               ; preds = %30, %0
  %11 = load %struct.student*, %struct.student** %1, align 8
  %12 = load i32, i32* %2, align 4
  %13 = sext i32 %12 to i64
  %14 = getelementptr inbounds %struct.student, %struct.student* getelementptr inbounds ([100 x %struct.student], [100 x %struct.student]* @stu, i64 0, i64 0), i64 %13
  %15 = icmp ult %struct.student* %11, %14
  br i1 %15, label %16, label %33

16:                                               ; preds = %10
  %17 = load %struct.student*, %struct.student** %1, align 8
  %18 = getelementptr inbounds %struct.student, %struct.student* %17, i32 0, i32 0
  %19 = load %struct.student*, %struct.student** %1, align 8
  %20 = getelementptr inbounds %struct.student, %struct.student* %19, i32 0, i32 1
  %21 = load %struct.student*, %struct.student** %1, align 8
  %22 = getelementptr inbounds %struct.student, %struct.student* %21, i32 0, i32 2
  %23 = load %struct.student*, %struct.student** %1, align 8
  %24 = getelementptr inbounds %struct.student, %struct.student* %23, i32 0, i32 3
  %25 = load %struct.student*, %struct.student** %1, align 8
  %26 = getelementptr inbounds %struct.student, %struct.student* %25, i32 0, i32 4
  %27 = load %struct.student*, %struct.student** %1, align 8
  %28 = getelementptr inbounds %struct.student, %struct.student* %27, i32 0, i32 5
  %29 = call i32 (i8*, ...) @__isoc99_scanf(i8* getelementptr inbounds ([18 x i8], [18 x i8]* @.str.1, i64 0, i64 0), [20 x i8]* %18, i32* %20, i32* %22, i8* %24, i8* %26, i32* %28)
  br label %30

30:                                               ; preds = %16
  %31 = load %struct.student*, %struct.student** %1, align 8
  %32 = getelementptr inbounds %struct.student, %struct.student* %31, i32 1
  store %struct.student* %32, %struct.student** %1, align 8
  br label %10

33:                                               ; preds = %10
  store %struct.student* getelementptr inbounds ([100 x %struct.student], [100 x %struct.student]* @stu, i64 0, i64 0), %struct.student** %1, align 8
  store %struct.student* getelementptr inbounds ([100 x %struct.student], [100 x %struct.student]* @stu, i64 0, i64 0), %struct.student** %1, align 8
  br label %34

34:                                               ; preds = %134, %33
  %35 = load %struct.student*, %struct.student** %1, align 8
  %36 = load i32, i32* %2, align 4
  %37 = sext i32 %36 to i64
  %38 = getelementptr inbounds %struct.student, %struct.student* getelementptr inbounds ([100 x %struct.student], [100 x %struct.student]* @stu, i64 0, i64 0), i64 %37
  %39 = icmp ult %struct.student* %35, %38
  br i1 %39, label %40, label %137

40:                                               ; preds = %34
  store i32 0, i32* %4, align 4
  %41 = load %struct.student*, %struct.student** %1, align 8
  %42 = getelementptr inbounds %struct.student, %struct.student* %41, i32 0, i32 1
  %43 = load i32, i32* %42, align 4
  %44 = icmp sgt i32 %43, 80
  br i1 %44, label %45, label %53

45:                                               ; preds = %40
  %46 = load %struct.student*, %struct.student** %1, align 8
  %47 = getelementptr inbounds %struct.student, %struct.student* %46, i32 0, i32 5
  %48 = load i32, i32* %47, align 4
  %49 = icmp sge i32 %48, 1
  br i1 %49, label %50, label %53

50:                                               ; preds = %45
  %51 = load i32, i32* %4, align 4
  %52 = add nsw i32 %51, 8000
  store i32 %52, i32* %4, align 4
  br label %53

53:                                               ; preds = %50, %45, %40
  %54 = load %struct.student*, %struct.student** %1, align 8
  %55 = getelementptr inbounds %struct.student, %struct.student* %54, i32 0, i32 1
  %56 = load i32, i32* %55, align 4
  %57 = icmp sgt i32 %56, 85
  br i1 %57, label %58, label %66

58:                                               ; preds = %53
  %59 = load %struct.student*, %struct.student** %1, align 8
  %60 = getelementptr inbounds %struct.student, %struct.student* %59, i32 0, i32 2
  %61 = load i32, i32* %60, align 4
  %62 = icmp sgt i32 %61, 80
  br i1 %62, label %63, label %66

63:                                               ; preds = %58
  %64 = load i32, i32* %4, align 4
  %65 = add nsw i32 %64, 4000
  store i32 %65, i32* %4, align 4
  br label %66

66:                                               ; preds = %63, %58, %53
  %67 = load %struct.student*, %struct.student** %1, align 8
  %68 = getelementptr inbounds %struct.student, %struct.student* %67, i32 0, i32 1
  %69 = load i32, i32* %68, align 4
  %70 = icmp sgt i32 %69, 90
  br i1 %70, label %71, label %74

71:                                               ; preds = %66
  %72 = load i32, i32* %4, align 4
  %73 = add nsw i32 %72, 2000
  store i32 %73, i32* %4, align 4
  br label %74

74:                                               ; preds = %71, %66
  %75 = load %struct.student*, %struct.student** %1, align 8
  %76 = getelementptr inbounds %struct.student, %struct.student* %75, i32 0, i32 1
  %77 = load i32, i32* %76, align 4
  %78 = icmp sgt i32 %77, 85
  br i1 %78, label %79, label %88

79:                                               ; preds = %74
  %80 = load %struct.student*, %struct.student** %1, align 8
  %81 = getelementptr inbounds %struct.student, %struct.student* %80, i32 0, i32 4
  %82 = load i8, i8* %81, align 1
  %83 = sext i8 %82 to i32
  %84 = icmp eq i32 %83, 89
  br i1 %84, label %85, label %88

85:                                               ; preds = %79
  %86 = load i32, i32* %4, align 4
  %87 = add nsw i32 %86, 1000
  store i32 %87, i32* %4, align 4
  br label %88

88:                                               ; preds = %85, %79, %74
  %89 = load %struct.student*, %struct.student** %1, align 8
  %90 = getelementptr inbounds %struct.student, %struct.student* %89, i32 0, i32 2
  %91 = load i32, i32* %90, align 4
  %92 = icmp sgt i32 %91, 80
  br i1 %92, label %93, label %102

93:                                               ; preds = %88
  %94 = load %struct.student*, %struct.student** %1, align 8
  %95 = getelementptr inbounds %struct.student, %struct.student* %94, i32 0, i32 3
  %96 = load i8, i8* %95, align 4
  %97 = sext i8 %96 to i32
  %98 = icmp eq i32 %97, 89
  br i1 %98, label %99, label %102

99:                                               ; preds = %93
  %100 = load i32, i32* %4, align 4
  %101 = add nsw i32 %100, 850
  store i32 %101, i32* %4, align 4
  br label %102

102:                                              ; preds = %99, %93, %88
  %103 = load i32, i32* %4, align 4
  %104 = load i32, i32* %5, align 4
  %105 = icmp sgt i32 %103, %104
  br i1 %105, label %106, label %130

106:                                              ; preds = %102
  %107 = load i32, i32* %4, align 4
  store i32 %107, i32* %5, align 4
  %108 = load %struct.student*, %struct.student** %1, align 8
  %109 = getelementptr inbounds %struct.student, %struct.student* %108, i32 0, i32 0
  %110 = getelementptr inbounds [20 x i8], [20 x i8]* %109, i64 0, i64 0
  %111 = call i64 @strlen(i8* %110) #4
  %112 = trunc i64 %111 to i32
  store i32 %112, i32* %6, align 4
  %113 = getelementptr inbounds [20 x i8], [20 x i8]* %8, i64 0, i64 0
  %114 = load %struct.student*, %struct.student** %1, align 8
  %115 = getelementptr inbounds %struct.student, %struct.student* %114, i32 0, i32 0
  %116 = getelementptr inbounds [20 x i8], [20 x i8]* %115, i64 0, i64 0
  %117 = call i8* @strcpy(i8* %113, i8* %116) #5
  %118 = load i32, i32* %6, align 4
  store i32 %118, i32* %7, align 4
  br label %119

119:                                              ; preds = %126, %106
  %120 = load i32, i32* %7, align 4
  %121 = icmp slt i32 %120, 20
  br i1 %121, label %122, label %129

122:                                              ; preds = %119
  %123 = load i32, i32* %7, align 4
  %124 = sext i32 %123 to i64
  %125 = getelementptr inbounds [20 x i8], [20 x i8]* %8, i64 0, i64 %124
  store i8 0, i8* %125, align 1
  br label %126

126:                                              ; preds = %122
  %127 = load i32, i32* %7, align 4
  %128 = add nsw i32 %127, 1
  store i32 %128, i32* %7, align 4
  br label %119

129:                                              ; preds = %119
  br label %130

130:                                              ; preds = %129, %102
  %131 = load i32, i32* %3, align 4
  %132 = load i32, i32* %4, align 4
  %133 = add nsw i32 %131, %132
  store i32 %133, i32* %3, align 4
  br label %134

134:                                              ; preds = %130
  %135 = load %struct.student*, %struct.student** %1, align 8
  %136 = getelementptr inbounds %struct.student, %struct.student* %135, i32 1
  store %struct.student* %136, %struct.student** %1, align 8
  br label %34

137:                                              ; preds = %34
  %138 = getelementptr inbounds [20 x i8], [20 x i8]* %8, i64 0, i64 0
  %139 = call i32 @puts(i8* %138)
  %140 = load i32, i32* %5, align 4
  %141 = load i32, i32* %3, align 4
  %142 = call i32 (i8*, ...) @printf(i8* getelementptr inbounds ([6 x i8], [6 x i8]* @.str.2, i64 0, i64 0), i32 %140, i32 %141)
  ret void
}

declare dso_local i32 @__isoc99_scanf(i8*, ...) #1

; Function Attrs: nounwind readonly
declare dso_local i64 @strlen(i8*) #2

; Function Attrs: nounwind
declare dso_local i8* @strcpy(i8*, i8*) #3

declare dso_local i32 @puts(i8*) #1

declare dso_local i32 @printf(i8*, ...) #1


!llvm.module.flags = !{!0}
!llvm.ident = !{!1}

!0 = !{i32 1, !"wchar_size", i32 4}
!1 = !{!"clang version 10.0.0-4ubuntu1 "}
